target datalayout = "e-m:e-p270:32:32-p271:32:32-p272:64:64-i64:64-i128:128-f80:128-n8:16:32:64-S128"
target triple = "x86_64-pc-linux-gnu"

%class.ShenandoahCollectorPolicy = type { i64, i64, i64, i64, i64, i32, i64, i64, i64, [34 x i64], [5 x i64], %struct.ShenandoahSharedFlag, ptr }
%struct.ShenandoahSharedFlag = type { [64 x i8], i8, [64 x i8] }

; Function Attrs: mustprogress nounwind uwtable
define hidden void @_ZN25ShenandoahCollectorPolicy34record_degenerated_upgrade_to_fullEv(ptr noundef nonnull align 8 dereferenceable(528) %0) #1 align 2 {
  %2 = alloca ptr, align 8
  store ptr %0, ptr %2, align 8
  %3 = load ptr, ptr %2, align 8
  %4 = getelementptr inbounds %class.ShenandoahCollectorPolicy, ptr %3, i32 0, i32 5
  store i32 0, ptr %4, align 8
  %5 = getelementptr inbounds %class.ShenandoahCollectorPolicy, ptr %3, i32 0, i32 7
  %6 = load i64, ptr %5, align 8
  %7 = add i64 %6, 1
  store i64 %7, ptr %5, align 8
  ret void
}